target datalayout = "e-m:e-p270:32:32-p271:32:32-p272:64:64-i64:64-i128:128-f80:128-n8:16:32:64-S128"
target triple = "x86_64-pc-linux-gnu"

%struct.keyPattern = type { i32, ptr }
%struct.aclSelector = type { i32, [16 x i64], ptr, ptr, ptr, ptr }
%struct.listNode = type { ptr, ptr, ptr }
%struct.listIter = type { ptr, i32 }
%struct.sdshdr8 = type { i8, i8, i8, [0 x i8] }
%struct.sdshdr16 = type <{ i16, i16, i8, [0 x i8] }>
%struct.sdshdr32 = type <{ i32, i32, i8, [0 x i8] }>
%struct.sdshdr64 = type <{ i64, i64, i8, [0 x i8] }>

; Function Attrs: inlinehint nounwind uwtable
define internal i64 @sdslen(ptr noundef %0) #11 {
  %2 = alloca i64, align 8
  %3 = alloca ptr, align 8
  %4 = alloca i8, align 1
  %5 = alloca i32, align 4
  store ptr %0, ptr %3, align 8, !tbaa !5
  call void @llvm.lifetime.start.p0(i64 1, ptr %4) #14
  %6 = load ptr, ptr %3, align 8, !tbaa !5
  %7 = getelementptr inbounds i8, ptr %6, i64 -1
  %8 = load i8, ptr %7, align 1, !tbaa !22
  store i8 %8, ptr %4, align 1, !tbaa !22
  %9 = load i8, ptr %4, align 1, !tbaa !22
  %10 = zext i8 %9 to i32
  %11 = and i32 %10, 7
  switch i32 %11, label %40 [
    i32 0, label %12
    i32 1, label %17
    i32 2, label %23
    i32 3, label %29
    i32 4, label %35
  ]

12:                                               ; preds = %1
  %13 = load i8, ptr %4, align 1, !tbaa !22
  %14 = zext i8 %13 to i32
  %15 = ashr i32 %14, 3
  %16 = sext i32 %15 to i64
  store i64 %16, ptr %2, align 8
  store i32 1, ptr %5, align 4
  br label %41

17:                                               ; preds = %1
  %18 = load ptr, ptr %3, align 8, !tbaa !5
  %19 = getelementptr inbounds i8, ptr %18, i64 -3
  %20 = getelementptr inbounds nuw %struct.sdshdr8, ptr %19, i32 0, i32 0
  %21 = load i8, ptr %20, align 1, !tbaa !22
  %22 = zext i8 %21 to i64
  store i64 %22, ptr %2, align 8
  store i32 1, ptr %5, align 4
  br label %41

23:                                               ; preds = %1
  %24 = load ptr, ptr %3, align 8, !tbaa !5
  %25 = getelementptr inbounds i8, ptr %24, i64 -5
  %26 = getelementptr inbounds nuw %struct.sdshdr16, ptr %25, i32 0, i32 0
  %27 = load i16, ptr %26, align 1, !tbaa !28
  %28 = zext i16 %27 to i64
  store i64 %28, ptr %2, align 8
  store i32 1, ptr %5, align 4
  br label %41

29:                                               ; preds = %1
  %30 = load ptr, ptr %3, align 8, !tbaa !5
  %31 = getelementptr inbounds i8, ptr %30, i64 -9
  %32 = getelementptr inbounds nuw %struct.sdshdr32, ptr %31, i32 0, i32 0
  %33 = load i32, ptr %32, align 1, !tbaa !17
  %34 = zext i32 %33 to i64
  store i64 %34, ptr %2, align 8
  store i32 1, ptr %5, align 4
  br label %41

35:                                               ; preds = %1
  %36 = load ptr, ptr %3, align 8, !tbaa !5
  %37 = getelementptr inbounds i8, ptr %36, i64 -17
  %38 = getelementptr inbounds nuw %struct.sdshdr64, ptr %37, i32 0, i32 0
  %39 = load i64, ptr %38, align 1, !tbaa !10
  store i64 %39, ptr %2, align 8
  store i32 1, ptr %5, align 4
  br label %41

40:                                               ; preds = %1
  store i64 0, ptr %2, align 8
  store i32 1, ptr %5, align 4
  br label %41

41:                                               ; preds = %40, %35, %29, %23, %17, %12
  call void @llvm.lifetime.end.p0(i64 1, ptr %4) #14
  %42 = load i64, ptr %2, align 8
  ret i64 %42
}

; Function Attrs: nounwind uwtable
define internal i32 @ACLSelectorCheckKey(ptr noundef %0, ptr noundef %1, i32 noundef %2, i32 noundef %3) #0 {
  %5 = alloca i32, align 4
  %6 = alloca ptr, align 8
  %7 = alloca ptr, align 8
  %8 = alloca i32, align 4
  %9 = alloca i32, align 4
  %10 = alloca %struct.listIter, align 8
  %11 = alloca ptr, align 8
  %12 = alloca i32, align 4
  %13 = alloca i32, align 4
  %14 = alloca ptr, align 8
  %15 = alloca i32, align 4
  %16 = alloca i64, align 8
  store ptr %0, ptr %6, align 8, !tbaa !32
  store ptr %1, ptr %7, align 8, !tbaa !5
  store i32 %2, ptr %8, align 4, !tbaa !17
  store i32 %3, ptr %9, align 4, !tbaa !17
  %17 = load ptr, ptr %6, align 8, !tbaa !32
  %18 = getelementptr inbounds nuw %struct.aclSelector, ptr %17, i32 0, i32 0
  %19 = load i32, ptr %18, align 8, !tbaa !64
  %20 = and i32 %19, 2
  %21 = icmp ne i32 %20, 0
  br i1 %21, label %22, label %23

22:                                               ; preds = %4
  store i32 0, ptr %5, align 4
  br label %116

23:                                               ; preds = %4
  call void @llvm.lifetime.start.p0(i64 16, ptr %10) #14
  call void @llvm.lifetime.start.p0(i64 8, ptr %11) #14
  %24 = load ptr, ptr %6, align 8, !tbaa !32
  %25 = getelementptr inbounds nuw %struct.aclSelector, ptr %24, i32 0, i32 3
  %26 = load ptr, ptr %25, align 8, !tbaa !67
  call void @listRewind(ptr noundef %26, ptr noundef %10)
  call void @llvm.lifetime.start.p0(i64 4, ptr %12) #14
  store i32 0, ptr %12, align 4, !tbaa !17
  %27 = load i32, ptr %9, align 4, !tbaa !17
  %28 = sext i32 %27 to i64
  %29 = and i64 %28, 16
  %30 = icmp ne i64 %29, 0
  br i1 %30, label %31, label %34

31:                                               ; preds = %23
  %32 = load i32, ptr %12, align 4, !tbaa !17
  %33 = or i32 %32, 1
  store i32 %33, ptr %12, align 4, !tbaa !17
  br label %34

34:                                               ; preds = %31, %23
  %35 = load i32, ptr %9, align 4, !tbaa !17
  %36 = sext i32 %35 to i64
  %37 = and i64 %36, 64
  %38 = icmp ne i64 %37, 0
  br i1 %38, label %39, label %42

39:                                               ; preds = %34
  %40 = load i32, ptr %12, align 4, !tbaa !17
  %41 = or i32 %40, 2
  store i32 %41, ptr %12, align 4, !tbaa !17
  br label %42

42:                                               ; preds = %39, %34
  %43 = load i32, ptr %9, align 4, !tbaa !17
  %44 = sext i32 %43 to i64
  %45 = and i64 %44, 128
  %46 = icmp ne i64 %45, 0
  br i1 %46, label %47, label %50

47:                                               ; preds = %42
  %48 = load i32, ptr %12, align 4, !tbaa !17
  %49 = or i32 %48, 2
  store i32 %49, ptr %12, align 4, !tbaa !17
  br label %50

50:                                               ; preds = %47, %42
  %51 = load i32, ptr %9, align 4, !tbaa !17
  %52 = sext i32 %51 to i64
  %53 = and i64 %52, 32
  %54 = icmp ne i64 %53, 0
  br i1 %54, label %55, label %58

55:                                               ; preds = %50
  %56 = load i32, ptr %12, align 4, !tbaa !17
  %57 = or i32 %56, 2
  store i32 %57, ptr %12, align 4, !tbaa !17
  br label %58

58:                                               ; preds = %55, %50
  call void @llvm.lifetime.start.p0(i64 4, ptr %13) #14
  %59 = load i32, ptr %9, align 4, !tbaa !17
  %60 = sext i32 %59 to i64
  %61 = and i64 %60, 2048
  %62 = trunc i64 %61 to i32
  store i32 %62, ptr %13, align 4, !tbaa !17
  br label %63

63:                                               ; preds = %113, %111, %58
  %64 = call ptr @listNext(ptr noundef %10)
  store ptr %64, ptr %11, align 8, !tbaa !94
  %65 = icmp ne ptr %64, null
  br i1 %65, label %66, label %114

66:                                               ; preds = %63
  call void @llvm.lifetime.start.p0(i64 8, ptr %14) #14
  %67 = load ptr, ptr %11, align 8, !tbaa !94
  %68 = getelementptr inbounds nuw %struct.listNode, ptr %67, i32 0, i32 2
  %69 = load ptr, ptr %68, align 8, !tbaa !86
  store ptr %69, ptr %14, align 8, !tbaa !32
  %70 = load ptr, ptr %14, align 8, !tbaa !32
  %71 = getelementptr inbounds nuw %struct.keyPattern, ptr %70, i32 0, i32 0
  %72 = load i32, ptr %71, align 8, !tbaa !37
  %73 = load i32, ptr %12, align 4, !tbaa !17
  %74 = and i32 %72, %73
  %75 = load i32, ptr %12, align 4, !tbaa !17
  %76 = icmp ne i32 %74, %75
  br i1 %76, label %77, label %78

77:                                               ; preds = %66
  store i32 2, ptr %15, align 4
  br label %111, !llvm.loop !180

78:                                               ; preds = %66
  call void @llvm.lifetime.start.p0(i64 8, ptr %16) #14
  %79 = load ptr, ptr %14, align 8, !tbaa !32
  %80 = getelementptr inbounds nuw %struct.keyPattern, ptr %79, i32 0, i32 1
  %81 = load ptr, ptr %80, align 8, !tbaa !35
  %82 = call i64 @sdslen(ptr noundef %81)
  store i64 %82, ptr %16, align 8, !tbaa !10
  %83 = load i32, ptr %13, align 4, !tbaa !17
  %84 = icmp ne i32 %83, 0
  br i1 %84, label %85, label %97

85:                                               ; preds = %78
  %86 = load ptr, ptr %14, align 8, !tbaa !32
  %87 = getelementptr inbounds nuw %struct.keyPattern, ptr %86, i32 0, i32 1
  %88 = load ptr, ptr %87, align 8, !tbaa !35
  %89 = load i64, ptr %16, align 8, !tbaa !10
  %90 = trunc i64 %89 to i32
  %91 = load ptr, ptr %7, align 8, !tbaa !5
  %92 = load i32, ptr %8, align 4, !tbaa !17
  %93 = call i32 @prefixmatch(ptr noundef %88, i32 noundef %90, ptr noundef %91, i32 noundef %92, i32 noundef 0)
  %94 = icmp ne i32 %93, 0
  br i1 %94, label %95, label %96

95:                                               ; preds = %85
  store i32 0, ptr %5, align 4
  store i32 1, ptr %15, align 4
  br label %110

96:                                               ; preds = %85
  br label %109

97:                                               ; preds = %78
  %98 = load ptr, ptr %14, align 8, !tbaa !32
  %99 = getelementptr inbounds nuw %struct.keyPattern, ptr %98, i32 0, i32 1
  %100 = load ptr, ptr %99, align 8, !tbaa !35
  %101 = load i64, ptr %16, align 8, !tbaa !10
  %102 = trunc i64 %101 to i32
  %103 = load ptr, ptr %7, align 8, !tbaa !5
  %104 = load i32, ptr %8, align 4, !tbaa !17
  %105 = call i32 @stringmatchlen(ptr noundef %100, i32 noundef %102, ptr noundef %103, i32 noundef %104, i32 noundef 0)
  %106 = icmp ne i32 %105, 0
  br i1 %106, label %107, label %108

107:                                              ; preds = %97
  store i32 0, ptr %5, align 4
  store i32 1, ptr %15, align 4
  br label %110

108:                                              ; preds = %97
  br label %109

109:                                              ; preds = %108, %96
  store i32 0, ptr %15, align 4
  br label %110

110:                                              ; preds = %109, %107, %95
  call void @llvm.lifetime.end.p0(i64 8, ptr %16) #14
  br label %111

111:                                              ; preds = %110, %77
  call void @llvm.lifetime.end.p0(i64 8, ptr %14) #14
  %112 = load i32, ptr %15, align 4
  switch i32 %112, label %115 [
    i32 0, label %113
    i32 2, label %63
  ]

113:                                              ; preds = %111
  br label %63, !llvm.loop !180

114:                                              ; preds = %63
  store i32 2, ptr %5, align 4
  store i32 1, ptr %15, align 4
  br label %115

115:                                              ; preds = %114, %111
  call void @llvm.lifetime.end.p0(i64 4, ptr %13) #14
  call void @llvm.lifetime.end.p0(i64 4, ptr %12) #14
  call void @llvm.lifetime.end.p0(i64 8, ptr %11) #14
  call void @llvm.lifetime.end.p0(i64 16, ptr %10) #14
  br label %116

116:                                              ; preds = %115, %22
  %117 = load i32, ptr %5, align 4
  ret i32 %117
}