; Function Attrs: nounwind uwtable
define internal fastcc range(i32 0, 3) i32 @ACLSelectorCheckKey(ptr noundef readonly captures(none) %0, ptr noundef %1, i32 noundef %2, i32 noundef %3) unnamed_addr #0 {
  %5 = alloca %struct.listIter, align 8
  %6 = load i32, ptr %0, align 8, !tbaa !61
  %7 = and i32 %6, 2
  %.not = icmp eq i32 %7, 0
  br i1 %.not, label %8, label %86

8:                                                ; preds = %4
  call void @llvm.lifetime.start.p0(i64 16, ptr nonnull %5) #25
  %9 = getelementptr inbounds nuw i8, ptr %0, i64 144
  %10 = load ptr, ptr %9, align 8, !tbaa !64
  call void @listRewind(ptr noundef %10, ptr noundef nonnull %5) #25
  %11 = lshr i32 %3, 4
  %.lobit = and i32 %11, 1
  %12 = lshr i32 %3, 5
  %13 = and i32 %12, 2
  %14 = and i32 %3, 160
  %15 = icmp eq i32 %14, 0
  %.331.v = select i1 %15, i32 %13, i32 2
  %.331 = or disjoint i32 %.331.v, %.lobit
  %16 = call ptr @listNext(ptr noundef nonnull %5) #25
  %.not3743 = icmp eq ptr %16, null
  br i1 %.not3743, label %.thread, label %.lr.ph

.lr.ph:                                           ; preds = %8
  %17 = and i32 %3, 2048
  %.not39 = icmp eq i32 %17, 0
  br i1 %.not39, label %.lr.ph.split.us, label %.lr.ph.split

.lr.ph.split.us:                                  ; preds = %.lr.ph, %50
  %18 = phi ptr [ %51, %50 ], [ %16, %.lr.ph ]
  %19 = getelementptr inbounds nuw i8, ptr %18, i64 16
  %20 = load ptr, ptr %19, align 8, !tbaa !85
  %21 = load i32, ptr %20, align 8, !tbaa !33
  %22 = and i32 %21, %.331
  %.not38.us = icmp eq i32 %22, %.331
  br i1 %.not38.us, label %23, label %50, !llvm.loop !175

23:                                               ; preds = %.lr.ph.split.us
  %24 = getelementptr inbounds nuw i8, ptr %20, i64 8
  %25 = load ptr, ptr %24, align 8, !tbaa !30
  %26 = getelementptr inbounds i8, ptr %25, i64 -1
  %27 = load i8, ptr %26, align 1, !tbaa !19
  %28 = zext i8 %27 to i32
  %29 = and i32 %28, 7
  switch i32 %29, label %sdslen.exit.us [
    i32 0, label %45
    i32 1, label %41
    i32 2, label %37
    i32 3, label %33
    i32 4, label %30
  ]

30:                                               ; preds = %23
  %31 = getelementptr inbounds i8, ptr %25, i64 -17
  %32 = load i64, ptr %31, align 1, !tbaa !5
  br label %sdslen.exit.us

33:                                               ; preds = %23
  %34 = getelementptr inbounds i8, ptr %25, i64 -9
  %35 = load i32, ptr %34, align 1, !tbaa !102
  %36 = zext i32 %35 to i64
  br label %sdslen.exit.us

37:                                               ; preds = %23
  %38 = getelementptr inbounds i8, ptr %25, i64 -5
  %39 = load i16, ptr %38, align 1, !tbaa !26
  %40 = zext i16 %39 to i64
  br label %sdslen.exit.us

41:                                               ; preds = %23
  %42 = getelementptr inbounds i8, ptr %25, i64 -3
  %43 = load i8, ptr %42, align 1, !tbaa !19
  %44 = zext i8 %43 to i64
  br label %sdslen.exit.us

45:                                               ; preds = %23
  %46 = lshr i32 %28, 3
  %47 = zext nneg i32 %46 to i64
  br label %sdslen.exit.us

sdslen.exit.us:                                   ; preds = %45, %41, %37, %33, %30, %23
  %.0.i.us = phi i64 [ %32, %30 ], [ %36, %33 ], [ %40, %37 ], [ %44, %41 ], [ %47, %45 ], [ 0, %23 ]
  %48 = trunc i64 %.0.i.us to i32
  %49 = call i32 @stringmatchlen(ptr noundef nonnull %25, i32 noundef %48, ptr noundef %1, i32 noundef %2, i32 noundef 0) #25
  %.not40.us = icmp eq i32 %49, 0
  br i1 %.not40.us, label %50, label %.thread

50:                                               ; preds = %sdslen.exit.us, %.lr.ph.split.us
  %51 = call ptr @listNext(ptr noundef nonnull %5) #25
  %.not37.us = icmp eq ptr %51, null
  br i1 %.not37.us, label %.thread, label %.lr.ph.split.us

.lr.ph.split:                                     ; preds = %.lr.ph, %84
  %52 = phi ptr [ %85, %84 ], [ %16, %.lr.ph ]
  %53 = getelementptr inbounds nuw i8, ptr %52, i64 16
  %54 = load ptr, ptr %53, align 8, !tbaa !85
  %55 = load i32, ptr %54, align 8, !tbaa !33
  %56 = and i32 %55, %.331
  %.not38 = icmp eq i32 %56, %.331
  br i1 %.not38, label %57, label %84, !llvm.loop !175

57:                                               ; preds = %.lr.ph.split
  %58 = getelementptr inbounds nuw i8, ptr %54, i64 8
  %59 = load ptr, ptr %58, align 8, !tbaa !30
  %60 = getelementptr inbounds i8, ptr %59, i64 -1
  %61 = load i8, ptr %60, align 1, !tbaa !19
  %62 = zext i8 %61 to i32
  %63 = and i32 %62, 7
  switch i32 %63, label %sdslen.exit [
    i32 0, label %64
    i32 1, label %67
    i32 2, label %71
    i32 3, label %75
    i32 4, label %79
  ]

64:                                               ; preds = %57
  %65 = lshr i32 %62, 3
  %66 = zext nneg i32 %65 to i64
  br label %sdslen.exit

67:                                               ; preds = %57
  %68 = getelementptr inbounds i8, ptr %59, i64 -3
  %69 = load i8, ptr %68, align 1, !tbaa !19
  %70 = zext i8 %69 to i64
  br label %sdslen.exit

71:                                               ; preds = %57
  %72 = getelementptr inbounds i8, ptr %59, i64 -5
  %73 = load i16, ptr %72, align 1, !tbaa !26
  %74 = zext i16 %73 to i64
  br label %sdslen.exit

75:                                               ; preds = %57
  %76 = getelementptr inbounds i8, ptr %59, i64 -9
  %77 = load i32, ptr %76, align 1, !tbaa !102
  %78 = zext i32 %77 to i64
  br label %sdslen.exit

79:                                               ; preds = %57
  %80 = getelementptr inbounds i8, ptr %59, i64 -17
  %81 = load i64, ptr %80, align 1, !tbaa !5
  br label %sdslen.exit

sdslen.exit:                                      ; preds = %57, %64, %67, %71, %75, %79
  %.0.i = phi i64 [ %81, %79 ], [ %78, %75 ], [ %74, %71 ], [ %70, %67 ], [ %66, %64 ], [ 0, %57 ]
  %82 = trunc i64 %.0.i to i32
  %83 = call i32 @prefixmatch(ptr noundef nonnull %59, i32 noundef %82, ptr noundef %1, i32 noundef %2, i32 noundef 0) #25
  %.not41 = icmp eq i32 %83, 0
  br i1 %.not41, label %84, label %.thread

84:                                               ; preds = %sdslen.exit, %.lr.ph.split
  %85 = call ptr @listNext(ptr noundef nonnull %5) #25
  %.not37 = icmp eq ptr %85, null
  br i1 %.not37, label %.thread, label %.lr.ph.split

.thread:                                          ; preds = %84, %sdslen.exit, %50, %sdslen.exit.us, %8
  %.4 = phi i32 [ 2, %8 ], [ 0, %sdslen.exit.us ], [ 2, %50 ], [ 0, %sdslen.exit ], [ 2, %84 ]
  call void @llvm.lifetime.end.p0(i64 16, ptr nonnull %5) #25
  br label %86

86:                                               ; preds = %4, %.thread
  %.0 = phi i32 [ %.4, %.thread ], [ 0, %4 ]
  ret i32 %.0
}